#include <math.h>
#include <stdio.h>
#include <stdlib.h>
#include <string.h>
#define LEN 100
#define ASCII 100
#define MAX_N 100
#define MAX_N 100
#define L 100
#define MAX 100
#define ASC 100
#define null 0
#define Len 100
#define M 100
#define SUM 100
#define NUMBER 100
#define SIZE 100
#define N 100
#define Max 100
#define X 100
#define Y 100
#define A 100
#define MAXN 100
#define MAXSIZE 100
int main() 
{
	int w,i,k;
	scanf("%d",&w);
	if(w%N==0)
	printf("1\n");
	if((w+3)%N==0)
	printf("2\n3\n");
	if((w+6)%N==0)
	printf("4\n");
	if((w+8)%N==0)
	printf("5\n");
	if((w+11)%N==0)
	printf("6\n");
	if((w+13)%N==0)
	printf("7\n");
	if((w+16)%N==0)
	printf("8\n");
	if((w+19)%N==0)
	printf("9\n");
	if((w+21)%N==0)
	printf("10\n");
	if((w+24)%N==0)
	printf("11\n");
	if((w+26)%N==0)
	printf("12\n");
} 