; ModuleID = '50/2636.c'
source_filename = "50/2636.c"
target datalayout = "e-m:e-p270:32:32-p271:32:32-p272:64:64-i64:64-f80:128-n8:16:32:64-S128"
target triple = "x86_64-pc-linux-gnu"

@.str = private unnamed_addr constant [3 x i8] c"%d\00", align 1
@.str.1 = private unnamed_addr constant [3 x i8] c"1\0A\00", align 1
@.str.2 = private unnamed_addr constant [5 x i8] c"2\0A3\0A\00", align 1
@.str.3 = private unnamed_addr constant [3 x i8] c"4\0A\00", align 1
@.str.4 = private unnamed_addr constant [3 x i8] c"5\0A\00", align 1
@.str.5 = private unnamed_addr constant [3 x i8] c"6\0A\00", align 1
@.str.6 = private unnamed_addr constant [3 x i8] c"7\0A\00", align 1
@.str.7 = private unnamed_addr constant [3 x i8] c"8\0A\00", align 1
@.str.8 = private unnamed_addr constant [3 x i8] c"9\0A\00", align 1
@.str.9 = private unnamed_addr constant [4 x i8] c"10\0A\00", align 1
@.str.10 = private unnamed_addr constant [4 x i8] c"11\0A\00", align 1
@.str.11 = private unnamed_addr constant [4 x i8] c"12\0A\00", align 1

; Function Attrs: noinline nounwind uwtable
define dso_local i32 @main() #0 {
  %1 = alloca i32, align 4
  %2 = alloca i32, align 4
  %3 = alloca i32, align 4
  %4 = alloca i32, align 4
  store i32 0, i32* %1, align 4
  %5 = call i32 (i8*, ...) @__isoc99_scanf(i8* getelementptr inbounds ([3 x i8], [3 x i8]* @.str, i64 0, i64 0), i32* %2)
  %6 = load i32, i32* %2, align 4
  %7 = srem i32 %6, 100
  %8 = icmp eq i32 %7, 0
  br i1 %8, label %9, label %11

9:                                                ; preds = %0
  %10 = call i32 (i8*, ...) @printf(i8* getelementptr inbounds ([3 x i8], [3 x i8]* @.str.1, i64 0, i64 0))
  br label %11

11:                                               ; preds = %9, %0
  %12 = load i32, i32* %2, align 4
  %13 = add nsw i32 %12, 3
  %14 = srem i32 %13, 100
  %15 = icmp eq i32 %14, 0
  br i1 %15, label %16, label %18

16:                                               ; preds = %11
  %17 = call i32 (i8*, ...) @printf(i8* getelementptr inbounds ([5 x i8], [5 x i8]* @.str.2, i64 0, i64 0))
  br label %18

18:                                               ; preds = %16, %11
  %19 = load i32, i32* %2, align 4
  %20 = add nsw i32 %19, 6
  %21 = srem i32 %20, 100
  %22 = icmp eq i32 %21, 0
  br i1 %22, label %23, label %25

23:                                               ; preds = %18
  %24 = call i32 (i8*, ...) @printf(i8* getelementptr inbounds ([3 x i8], [3 x i8]* @.str.3, i64 0, i64 0))
  br label %25

25:                                               ; preds = %23, %18
  %26 = load i32, i32* %2, align 4
  %27 = add nsw i32 %26, 8
  %28 = srem i32 %27, 100
  %29 = icmp eq i32 %28, 0
  br i1 %29, label %30, label %32

30:                                               ; preds = %25
  %31 = call i32 (i8*, ...) @printf(i8* getelementptr inbounds ([3 x i8], [3 x i8]* @.str.4, i64 0, i64 0))
  br label %32

32:                                               ; preds = %30, %25
  %33 = load i32, i32* %2, align 4
  %34 = add nsw i32 %33, 11
  %35 = srem i32 %34, 100
  %36 = icmp eq i32 %35, 0
  br i1 %36, label %37, label %39

37:                                               ; preds = %32
  %38 = call i32 (i8*, ...) @printf(i8* getelementptr inbounds ([3 x i8], [3 x i8]* @.str.5, i64 0, i64 0))
  br label %39

39:                                               ; preds = %37, %32
  %40 = load i32, i32* %2, align 4
  %41 = add nsw i32 %40, 13
  %42 = srem i32 %41, 100
  %43 = icmp eq i32 %42, 0
  br i1 %43, label %44, label %46

44:                                               ; preds = %39
  %45 = call i32 (i8*, ...) @printf(i8* getelementptr inbounds ([3 x i8], [3 x i8]* @.str.6, i64 0, i64 0))
  br label %46

46:                                               ; preds = %44, %39
  %47 = load i32, i32* %2, align 4
  %48 = add nsw i32 %47, 16
  %49 = srem i32 %48, 100
  %50 = icmp eq i32 %49, 0
  br i1 %50, label %51, label %53

51:                                               ; preds = %46
  %52 = call i32 (i8*, ...) @printf(i8* getelementptr inbounds ([3 x i8], [3 x i8]* @.str.7, i64 0, i64 0))
  br label %53

53:                                               ; preds = %51, %46
  %54 = load i32, i32* %2, align 4
  %55 = add nsw i32 %54, 19
  %56 = srem i32 %55, 100
  %57 = icmp eq i32 %56, 0
  br i1 %57, label %58, label %60

58:                                               ; preds = %53
  %59 = call i32 (i8*, ...) @printf(i8* getelementptr inbounds ([3 x i8], [3 x i8]* @.str.8, i64 0, i64 0))
  br label %60

60:                                               ; preds = %58, %53
  %61 = load i32, i32* %2, align 4
  %62 = add nsw i32 %61, 21
  %63 = srem i32 %62, 100
  %64 = icmp eq i32 %63, 0
  br i1 %64, label %65, label %67

65:                                               ; preds = %60
  %66 = call i32 (i8*, ...) @printf(i8* getelementptr inbounds ([4 x i8], [4 x i8]* @.str.9, i64 0, i64 0))
  br label %67

67:                                               ; preds = %65, %60
  %68 = load i32, i32* %2, align 4
  %69 = add nsw i32 %68, 24
  %70 = srem i32 %69, 100
  %71 = icmp eq i32 %70, 0
  br i1 %71, label %72, label %74

72:                                               ; preds = %67
  %73 = call i32 (i8*, ...) @printf(i8* getelementptr inbounds ([4 x i8], [4 x i8]* @.str.10, i64 0, i64 0))
  br label %74

74:                                               ; preds = %72, %67
  %75 = load i32, i32* %2, align 4
  %76 = add nsw i32 %75, 26
  %77 = srem i32 %76, 100
  %78 = icmp eq i32 %77, 0
  br i1 %78, label %79, label %81

79:                                               ; preds = %74
  %80 = call i32 (i8*, ...) @printf(i8* getelementptr inbounds ([4 x i8], [4 x i8]* @.str.11, i64 0, i64 0))
  br label %81

81:                                               ; preds = %79, %74
  %82 = load i32, i32* %1, align 4
  ret i32 %82
}

declare dso_local i32 @__isoc99_scanf(i8*, ...) #1

declare dso_local i32 @printf(i8*, ...) #1


!llvm.module.flags = !{!0}
!llvm.ident = !{!1}

!0 = !{i32 1, !"wchar_size", i32 4}
!1 = !{!"clang version 10.0.0-4ubuntu1 "}
